ccopy_reg
_reconstructor
p0
(cprocedural_city_generation.roadmap.Vertex
Vertex
p1
c__builtin__
object
p2
Ntp3
Rp4
(dp5
S'neighbours'
p6
(lp7
sS'seed'
p8
I00
sS'coords'
p9
cnumpy.core.multiarray
_reconstruct
p10
(cnumpy
ndarray
p11
(I0
tp12
S'b'
p13
tp14
Rp15
(I1
(I3
tp16
cnumpy
dtype
p17
(S'i8'
p18
I0
I1
tp19
Rp20
(I3
S'<'
p21
NNNI-1
I-1
I0
tp22
bI00
S'\x01\x00\x00\x00\x00\x00\x00\x00\x02\x00\x00\x00\x00\x00\x00\x00\x03\x00\x00\x00\x00\x00\x00\x00'
p23
tp24
bsS'minor_road'
p25
I00
sb.